target datalayout = "e-m:e-p270:32:32-p271:32:32-p272:64:64-i64:64-i128:128-f80:128-n8:16:32:64-S128"
target triple = "x86_64-pc-linux-gnu"

%struct.curltime = type { i64, i32 }
%struct.Curl_cfilter = type { ptr, ptr, ptr, ptr, i32, i8 }
%struct.ssl_connect_data = type { i32, i32, %struct.ssl_peer, ptr, ptr, %struct.cf_call_data, %struct.curltime, i32, i8 }
%struct.ssl_peer = type { ptr, ptr, ptr, i8 }
%struct.cf_call_data = type { ptr }

; Function Attrs: nounwind uwtable
define dso_local void @Curl_ssl_adjust_pollset(ptr noundef %0, ptr noundef %1, ptr noundef %2) #0 {
  %4 = alloca ptr, align 8
  %5 = alloca ptr, align 8
  %6 = alloca ptr, align 8
  %7 = alloca ptr, align 8
  %8 = alloca i32, align 4
  store ptr %0, ptr %4, align 8
  store ptr %1, ptr %5, align 8
  store ptr %2, ptr %6, align 8
  %9 = load ptr, ptr %4, align 8
  %10 = getelementptr inbounds %struct.Curl_cfilter, ptr %9, i32 0, i32 5
  %11 = load i8, ptr %10, align 4
  %12 = and i8 %11, 1
  %13 = zext i8 %12 to i32
  %14 = icmp ne i32 %13, 0
  br i1 %14, label %41, label %15

15:                                               ; preds = %3
  %16 = load ptr, ptr %4, align 8
  %17 = getelementptr inbounds %struct.Curl_cfilter, ptr %16, i32 0, i32 2
  %18 = load ptr, ptr %17, align 8
  store ptr %18, ptr %7, align 8
  %19 = load ptr, ptr %4, align 8
  %20 = getelementptr inbounds %struct.Curl_cfilter, ptr %19, i32 0, i32 1
  %21 = load ptr, ptr %20, align 8
  %22 = load ptr, ptr %5, align 8
  %23 = call i32 @Curl_conn_cf_get_socket(ptr noundef %21, ptr noundef %22)
  store i32 %23, ptr %8, align 4
  %24 = load i32, ptr %8, align 4
  %25 = icmp ne i32 %24, -1
  br i1 %25, label %26, label %40

26:                                               ; preds = %15
  %27 = load ptr, ptr %7, align 8
  %28 = getelementptr inbounds %struct.ssl_connect_data, ptr %27, i32 0, i32 1
  %29 = load i32, ptr %28, align 4
  %30 = icmp eq i32 %29, 3
  br i1 %30, label %31, label %35

31:                                               ; preds = %26
  %32 = load ptr, ptr %5, align 8
  %33 = load ptr, ptr %6, align 8
  %34 = load i32, ptr %8, align 4
  call void @Curl_pollset_change(ptr noundef %32, ptr noundef %33, i32 noundef %34, i32 noundef 2, i32 noundef 1)
  br label %39

35:                                               ; preds = %26
  %36 = load ptr, ptr %5, align 8
  %37 = load ptr, ptr %6, align 8
  %38 = load i32, ptr %8, align 4
  call void @Curl_pollset_change(ptr noundef %36, ptr noundef %37, i32 noundef %38, i32 noundef 1, i32 noundef 2)
  br label %39

39:                                               ; preds = %35, %31
  br label %40

40:                                               ; preds = %39, %15
  br label %41

41:                                               ; preds = %40, %3
  ret void
}