; Function Attrs: nounwind uwtable
define dso_local void @Curl_ssl_adjust_pollset(ptr noundef readonly captures(none) %0, ptr noundef %1, ptr noundef %2) local_unnamed_addr #2 {
  %4 = getelementptr inbounds nuw i8, ptr %0, i64 36
  %5 = load i8, ptr %4, align 4
  %6 = and i8 %5, 1
  %.not = icmp eq i8 %6, 0
  br i1 %.not, label %7, label %19

7:                                                ; preds = %3
  %8 = getelementptr inbounds nuw i8, ptr %0, i64 16
  %9 = load ptr, ptr %8, align 8
  %10 = getelementptr inbounds nuw i8, ptr %0, i64 8
  %11 = load ptr, ptr %10, align 8
  %12 = tail call i32 @Curl_conn_cf_get_socket(ptr noundef %11, ptr noundef %1) #18
  %.not11 = icmp eq i32 %12, -1
  br i1 %.not11, label %19, label %13

13:                                               ; preds = %7
  %14 = getelementptr inbounds nuw i8, ptr %9, i64 4
  %15 = load i32, ptr %14, align 4
  %16 = icmp eq i32 %15, 3
  br i1 %16, label %17, label %18

17:                                               ; preds = %13
  tail call void @Curl_pollset_change(ptr noundef %1, ptr noundef %2, i32 noundef %12, i32 noundef 2, i32 noundef 1) #18
  br label %19

18:                                               ; preds = %13
  tail call void @Curl_pollset_change(ptr noundef %1, ptr noundef %2, i32 noundef %12, i32 noundef 1, i32 noundef 2) #18
  br label %19

19:                                               ; preds = %7, %18, %17, %3
  ret void
}